target datalayout = "e-m:e-p270:32:32-p271:32:32-p272:64:64-i64:64-i128:128-f80:128-n8:16:32:64-S128"
target triple = "x86_64-pc-linux-gnu"

%struct.asn1_string_st = type { i32, i32, ptr, i64 }

@.str = private unnamed_addr constant [35 x i8] c"../openssl/crypto/pkcs7/pk7_attr.c\00", align 1
@__func__.PKCS7_add_attrib_smimecap = private unnamed_addr constant [26 x i8] c"PKCS7_add_attrib_smimecap\00", align 1

; Function Attrs: nounwind uwtable
define i32 @PKCS7_add_attrib_smimecap(ptr noundef %0, ptr noundef %1) #0 {
  %3 = alloca i32, align 4
  %4 = alloca ptr, align 8
  %5 = alloca ptr, align 8
  %6 = alloca ptr, align 8
  %7 = alloca i32, align 4
  store ptr %0, ptr %4, align 8, !tbaa !3
  store ptr %1, ptr %5, align 8, !tbaa !8
  call void @llvm.lifetime.start.p0(i64 8, ptr %6) #4
  %8 = call ptr @ASN1_STRING_new()
  store ptr %8, ptr %6, align 8, !tbaa !10
  %9 = icmp eq ptr %8, null
  br i1 %9, label %10, label %11

10:                                               ; preds = %2
  call void @ERR_new()
  call void @ERR_set_debug(ptr noundef @.str, i32 noundef 26, ptr noundef @__func__.PKCS7_add_attrib_smimecap)
  call void (i32, i32, ptr, ...) @ERR_set_error(i32 noundef 33, i32 noundef 524301, ptr noundef null)
  store i32 0, ptr %3, align 4
  store i32 1, ptr %7, align 4
  br label %38

11:                                               ; preds = %2
  %12 = load ptr, ptr %5, align 8, !tbaa !8
  %13 = load ptr, ptr %6, align 8, !tbaa !10
  %14 = getelementptr inbounds nuw %struct.asn1_string_st, ptr %13, i32 0, i32 2
  %15 = call ptr @X509_ALGORS_it()
  %16 = call i32 @ASN1_item_i2d(ptr noundef %12, ptr noundef %14, ptr noundef %15)
  %17 = load ptr, ptr %6, align 8, !tbaa !10
  %18 = getelementptr inbounds nuw %struct.asn1_string_st, ptr %17, i32 0, i32 0
  store i32 %16, ptr %18, align 8, !tbaa !12
  %19 = load ptr, ptr %6, align 8, !tbaa !10
  %20 = getelementptr inbounds nuw %struct.asn1_string_st, ptr %19, i32 0, i32 0
  %21 = load i32, ptr %20, align 8, !tbaa !12
  %22 = icmp sle i32 %21, 0
  br i1 %22, label %28, label %23

23:                                               ; preds = %11
  %24 = load ptr, ptr %6, align 8, !tbaa !10
  %25 = getelementptr inbounds nuw %struct.asn1_string_st, ptr %24, i32 0, i32 2
  %26 = load ptr, ptr %25, align 8, !tbaa !17
  %27 = icmp eq ptr %26, null
  br i1 %27, label %28, label %30

28:                                               ; preds = %23, %11
  %29 = load ptr, ptr %6, align 8, !tbaa !10
  call void @ASN1_STRING_free(ptr noundef %29)
  store i32 1, ptr %3, align 4
  store i32 1, ptr %7, align 4
  br label %38

30:                                               ; preds = %23
  %31 = load ptr, ptr %4, align 8, !tbaa !3
  %32 = load ptr, ptr %6, align 8, !tbaa !10
  %33 = call i32 @PKCS7_add_signed_attribute(ptr noundef %31, i32 noundef 167, i32 noundef 16, ptr noundef %32)
  %34 = icmp ne i32 %33, 0
  br i1 %34, label %37, label %35

35:                                               ; preds = %30
  %36 = load ptr, ptr %6, align 8, !tbaa !10
  call void @ASN1_STRING_free(ptr noundef %36)
  store i32 0, ptr %3, align 4
  store i32 1, ptr %7, align 4
  br label %38

37:                                               ; preds = %30
  store i32 1, ptr %3, align 4
  store i32 1, ptr %7, align 4
  br label %38

38:                                               ; preds = %37, %35, %28, %10
  call void @llvm.lifetime.end.p0(i64 8, ptr %6) #4
  %39 = load i32, ptr %3, align 4
  ret i32 %39
}