; Function Attrs: nounwind uwtable
define range(i32 0, 2) i32 @PKCS7_add_attrib_smimecap(ptr noundef %0, ptr noundef %1) local_unnamed_addr #0 {
  %3 = tail call ptr @ASN1_STRING_new() #3
  %4 = icmp eq ptr %3, null
  br i1 %4, label %5, label %6

5:                                                ; preds = %2
  tail call void @ERR_new() #3
  tail call void @ERR_set_debug(ptr noundef nonnull @.str, i32 noundef 26, ptr noundef nonnull @__func__.PKCS7_add_attrib_smimecap) #3
  tail call void (i32, i32, ptr, ...) @ERR_set_error(i32 noundef 33, i32 noundef 524301, ptr noundef null) #3
  br label %18

6:                                                ; preds = %2
  %7 = getelementptr inbounds nuw i8, ptr %3, i64 8
  %8 = tail call ptr @X509_ALGORS_it() #3
  %9 = tail call i32 @ASN1_item_i2d(ptr noundef %1, ptr noundef nonnull %7, ptr noundef %8) #3
  store i32 %9, ptr %3, align 8, !tbaa !3
  %10 = icmp slt i32 %9, 1
  br i1 %10, label %14, label %11

11:                                               ; preds = %6
  %12 = load ptr, ptr %7, align 8, !tbaa !11
  %13 = icmp eq ptr %12, null
  br i1 %13, label %14, label %15

14:                                               ; preds = %11, %6
  tail call void @ASN1_STRING_free(ptr noundef nonnull %3) #3
  br label %18

15:                                               ; preds = %11
  %16 = tail call i32 @PKCS7_add_signed_attribute(ptr noundef %0, i32 noundef 167, i32 noundef 16, ptr noundef nonnull %3) #3
  %.not = icmp eq i32 %16, 0
  br i1 %.not, label %17, label %18

17:                                               ; preds = %15
  tail call void @ASN1_STRING_free(ptr noundef nonnull %3) #3
  br label %18

18:                                               ; preds = %15, %17, %14, %5
  %.0 = phi i32 [ 0, %5 ], [ 1, %14 ], [ 0, %17 ], [ 1, %15 ]
  ret i32 %.0
}